; Function Attrs: null_pointer_is_valid sspstrong uwtable
define internal noundef zeroext i16 @gmr1_ie_rr_bcch_carrier(ptr noundef %0, ptr noundef %1, ptr readnone captures(none) %2, i32 noundef %3, i32 %4, ptr readnone captures(none) %5, i32 %6) #1 {
  %8 = shl i32 %3, 3
  %9 = load i32, ptr @hf_rr_bcch_carrier_arfcn, align 4
  %10 = tail call ptr @proto_tree_add_bits_item(ptr noundef %1, i32 noundef %9, ptr noundef %0, i32 noundef %8, i32 noundef 11, i32 noundef 0)
  %11 = add i32 %8, 11
  %12 = load i32, ptr @hf_rr_bcch_carrier_si, align 4
  %13 = tail call ptr @proto_tree_add_bits_item(ptr noundef %1, i32 noundef %12, ptr noundef %0, i32 noundef %11, i32 noundef 1, i32 noundef 0)
  %14 = add i32 %8, 12
  %15 = load i32, ptr @hf_rr_bcch_carrier_ri, align 4
  %16 = tail call ptr @proto_tree_add_bits_item(ptr noundef %1, i32 noundef %15, ptr noundef %0, i32 noundef %14, i32 noundef 1, i32 noundef 0)
  %17 = add i32 %8, 13
  %18 = load i32, ptr @hf_rr_bcch_carrier_spare, align 4
  %19 = tail call ptr @proto_tree_add_bits_item(ptr noundef %1, i32 noundef %18, ptr noundef %0, i32 noundef %17, i32 noundef 3, i32 noundef 0)
  ret i16 2
}